ccopy_reg
_reconstructor
p0
(cpredictors
NaiveBayes
p1
c__builtin__
object
p2
Ntp3
Rp4
(dp5
S'db'
p6
(dp7
sS'summaries'
p8
(dp9
cnumpy.core.multiarray
scalar
p10
(cnumpy
dtype
p11
(S'f8'
p12
I0
I1
tp13
Rp14
(I3
S'<'
p15
NNNI-1
I-1
I0
tp16
bS'\x00\x00\x00\x00\x00\x00\x00\x00'
p17
tp18
Rp19
(lp20
(g10
(g14
S'\x1d\xd4A\x1d\xd4\xc1K@'
p21
tp22
Rp23
F22.184217268101197
tp24
a(g10
(g14
S'\xf1\x15_\xf1\x15_\t@'
p25
tp26
Rp27
F1.6536183905341046
tp28
a(g10
(g14
S'\xf9\x8a\xaf\xf8\x8a\xaf\x10@'
p29
tp30
Rp31
F3.846202973183341
tp32
asg10
(g14
S'\x00\x00\x00\x00\x00\x00\xf0?'
p33
tp34
Rp35
(lp36
(g10
(g14
S'\x00\x00\x00\x00\x00\x1aF@'
p37
tp38
Rp39
F18.671920763542246
tp40
a(g10
(g14
S'\x00\x00\x00\x00\x00\x00\x0e@'
p41
tp42
Rp43
F1.699673171197595
tp44
a(g10
(g14
S'\x00\x00\x00\x00\x00\x80\x04@'
p45
tp46
Rp47
F2.9966912971073163
tp48
assb.